target datalayout = "e-m:e-p270:32:32-p271:32:32-p272:64:64-i64:64-i128:128-f80:128-n8:16:32:64-S128"
target triple = "x86_64-pc-linux-gnu"

; Function Attrs: alwaysinline nounwind uwtable
define internal void @extract_color(ptr noundef %0, i16 noundef zeroext %1, i16 noundef zeroext %2, i32 noundef %3, i32 noundef %4) #4 {
  %6 = alloca ptr, align 8
  %7 = alloca i16, align 2
  %8 = alloca i16, align 2
  %9 = alloca i32, align 4
  %10 = alloca i32, align 4
  %11 = alloca i32, align 4
  %12 = alloca i8, align 1
  %13 = alloca i8, align 1
  %14 = alloca i8, align 1
  %15 = alloca i8, align 1
  %16 = alloca i8, align 1
  %17 = alloca i8, align 1
  %18 = alloca i8, align 1
  store ptr %0, ptr %6, align 8, !tbaa !79
  store i16 %1, ptr %7, align 2, !tbaa !75
  store i16 %2, ptr %8, align 2, !tbaa !75
  store i32 %3, ptr %9, align 4, !tbaa !29
  store i32 %4, ptr %10, align 4, !tbaa !29
  call void @llvm.lifetime.start.p0(i64 4, ptr %11) #7
  call void @llvm.lifetime.start.p0(i64 1, ptr %12) #7
  call void @llvm.lifetime.start.p0(i64 1, ptr %13) #7
  call void @llvm.lifetime.start.p0(i64 1, ptr %14) #7
  call void @llvm.lifetime.start.p0(i64 1, ptr %15) #7
  call void @llvm.lifetime.start.p0(i64 1, ptr %16) #7
  call void @llvm.lifetime.start.p0(i64 1, ptr %17) #7
  call void @llvm.lifetime.start.p0(i64 1, ptr %18) #7
  %19 = load i32, ptr %9, align 4, !tbaa !29
  %20 = icmp ne i32 %19, 0
  %21 = select i1 %20, i32 0, i32 255
  %22 = trunc i32 %21 to i8
  store i8 %22, ptr %18, align 1, !tbaa !40
  %23 = load i16, ptr %7, align 2, !tbaa !75
  %24 = zext i16 %23 to i32
  %25 = ashr i32 %24, 11
  %26 = mul nsw i32 %25, 255
  %27 = add nsw i32 %26, 16
  store i32 %27, ptr %11, align 4, !tbaa !29
  %28 = load i32, ptr %11, align 4, !tbaa !29
  %29 = sdiv i32 %28, 32
  %30 = load i32, ptr %11, align 4, !tbaa !29
  %31 = add nsw i32 %29, %30
  %32 = sdiv i32 %31, 32
  %33 = trunc i32 %32 to i8
  store i8 %33, ptr %12, align 1, !tbaa !40
  %34 = load i16, ptr %7, align 2, !tbaa !75
  %35 = zext i16 %34 to i32
  %36 = and i32 %35, 2016
  %37 = ashr i32 %36, 5
  %38 = mul nsw i32 %37, 255
  %39 = add nsw i32 %38, 32
  store i32 %39, ptr %11, align 4, !tbaa !29
  %40 = load i32, ptr %11, align 4, !tbaa !29
  %41 = sdiv i32 %40, 64
  %42 = load i32, ptr %11, align 4, !tbaa !29
  %43 = add nsw i32 %41, %42
  %44 = sdiv i32 %43, 64
  %45 = trunc i32 %44 to i8
  store i8 %45, ptr %13, align 1, !tbaa !40
  %46 = load i16, ptr %7, align 2, !tbaa !75
  %47 = zext i16 %46 to i32
  %48 = and i32 %47, 31
  %49 = mul nsw i32 %48, 255
  %50 = add nsw i32 %49, 16
  store i32 %50, ptr %11, align 4, !tbaa !29
  %51 = load i32, ptr %11, align 4, !tbaa !29
  %52 = sdiv i32 %51, 32
  %53 = load i32, ptr %11, align 4, !tbaa !29
  %54 = add nsw i32 %52, %53
  %55 = sdiv i32 %54, 32
  %56 = trunc i32 %55 to i8
  store i8 %56, ptr %14, align 1, !tbaa !40
  %57 = load i16, ptr %8, align 2, !tbaa !75
  %58 = zext i16 %57 to i32
  %59 = ashr i32 %58, 11
  %60 = mul nsw i32 %59, 255
  %61 = add nsw i32 %60, 16
  store i32 %61, ptr %11, align 4, !tbaa !29
  %62 = load i32, ptr %11, align 4, !tbaa !29
  %63 = sdiv i32 %62, 32
  %64 = load i32, ptr %11, align 4, !tbaa !29
  %65 = add nsw i32 %63, %64
  %66 = sdiv i32 %65, 32
  %67 = trunc i32 %66 to i8
  store i8 %67, ptr %15, align 1, !tbaa !40
  %68 = load i16, ptr %8, align 2, !tbaa !75
  %69 = zext i16 %68 to i32
  %70 = and i32 %69, 2016
  %71 = ashr i32 %70, 5
  %72 = mul nsw i32 %71, 255
  %73 = add nsw i32 %72, 32
  store i32 %73, ptr %11, align 4, !tbaa !29
  %74 = load i32, ptr %11, align 4, !tbaa !29
  %75 = sdiv i32 %74, 64
  %76 = load i32, ptr %11, align 4, !tbaa !29
  %77 = add nsw i32 %75, %76
  %78 = sdiv i32 %77, 64
  %79 = trunc i32 %78 to i8
  store i8 %79, ptr %16, align 1, !tbaa !40
  %80 = load i16, ptr %8, align 2, !tbaa !75
  %81 = zext i16 %80 to i32
  %82 = and i32 %81, 31
  %83 = mul nsw i32 %82, 255
  %84 = add nsw i32 %83, 16
  store i32 %84, ptr %11, align 4, !tbaa !29
  %85 = load i32, ptr %11, align 4, !tbaa !29
  %86 = sdiv i32 %85, 32
  %87 = load i32, ptr %11, align 4, !tbaa !29
  %88 = add nsw i32 %86, %87
  %89 = sdiv i32 %88, 32
  %90 = trunc i32 %89 to i8
  store i8 %90, ptr %17, align 1, !tbaa !40
  %91 = load i32, ptr %9, align 4, !tbaa !29
  %92 = icmp ne i32 %91, 0
  br i1 %92, label %99, label %93

93:                                               ; preds = %5
  %94 = load i16, ptr %7, align 2, !tbaa !75
  %95 = zext i16 %94 to i32
  %96 = load i16, ptr %8, align 2, !tbaa !75
  %97 = zext i16 %96 to i32
  %98 = icmp sgt i32 %95, %97
  br i1 %98, label %99, label %210

99:                                               ; preds = %93, %5
  %100 = load i8, ptr %12, align 1, !tbaa !40
  %101 = zext i8 %100 to i32
  %102 = shl i32 %101, 0
  %103 = load i8, ptr %13, align 1, !tbaa !40
  %104 = zext i8 %103 to i32
  %105 = shl i32 %104, 8
  %106 = or i32 %102, %105
  %107 = load i8, ptr %14, align 1, !tbaa !40
  %108 = zext i8 %107 to i32
  %109 = shl i32 %108, 16
  %110 = or i32 %106, %109
  %111 = load i8, ptr %18, align 1, !tbaa !40
  %112 = zext i8 %111 to i32
  %113 = shl i32 %112, 24
  %114 = or i32 %110, %113
  %115 = load ptr, ptr %6, align 8, !tbaa !79
  %116 = getelementptr inbounds i32, ptr %115, i64 0
  store i32 %114, ptr %116, align 4, !tbaa !29
  %117 = load i8, ptr %15, align 1, !tbaa !40
  %118 = zext i8 %117 to i32
  %119 = shl i32 %118, 0
  %120 = load i8, ptr %16, align 1, !tbaa !40
  %121 = zext i8 %120 to i32
  %122 = shl i32 %121, 8
  %123 = or i32 %119, %122
  %124 = load i8, ptr %17, align 1, !tbaa !40
  %125 = zext i8 %124 to i32
  %126 = shl i32 %125, 16
  %127 = or i32 %123, %126
  %128 = load i8, ptr %18, align 1, !tbaa !40
  %129 = zext i8 %128 to i32
  %130 = shl i32 %129, 24
  %131 = or i32 %127, %130
  %132 = load ptr, ptr %6, align 8, !tbaa !79
  %133 = getelementptr inbounds i32, ptr %132, i64 1
  store i32 %131, ptr %133, align 4, !tbaa !29
  %134 = load i8, ptr %12, align 1, !tbaa !40
  %135 = zext i8 %134 to i32
  %136 = mul nsw i32 2, %135
  %137 = load i8, ptr %15, align 1, !tbaa !40
  %138 = zext i8 %137 to i32
  %139 = add nsw i32 %136, %138
  %140 = sdiv i32 %139, 3
  %141 = trunc i32 %140 to i8
  %142 = zext i8 %141 to i32
  %143 = shl i32 %142, 0
  %144 = load i8, ptr %13, align 1, !tbaa !40
  %145 = zext i8 %144 to i32
  %146 = mul nsw i32 2, %145
  %147 = load i8, ptr %16, align 1, !tbaa !40
  %148 = zext i8 %147 to i32
  %149 = add nsw i32 %146, %148
  %150 = sdiv i32 %149, 3
  %151 = trunc i32 %150 to i8
  %152 = zext i8 %151 to i32
  %153 = shl i32 %152, 8
  %154 = or i32 %143, %153
  %155 = load i8, ptr %14, align 1, !tbaa !40
  %156 = zext i8 %155 to i32
  %157 = mul nsw i32 2, %156
  %158 = load i8, ptr %17, align 1, !tbaa !40
  %159 = zext i8 %158 to i32
  %160 = add nsw i32 %157, %159
  %161 = sdiv i32 %160, 3
  %162 = trunc i32 %161 to i8
  %163 = zext i8 %162 to i32
  %164 = shl i32 %163, 16
  %165 = or i32 %154, %164
  %166 = load i8, ptr %18, align 1, !tbaa !40
  %167 = zext i8 %166 to i32
  %168 = shl i32 %167, 24
  %169 = or i32 %165, %168
  %170 = load ptr, ptr %6, align 8, !tbaa !79
  %171 = getelementptr inbounds i32, ptr %170, i64 2
  store i32 %169, ptr %171, align 4, !tbaa !29
  %172 = load i8, ptr %15, align 1, !tbaa !40
  %173 = zext i8 %172 to i32
  %174 = mul nsw i32 2, %173
  %175 = load i8, ptr %12, align 1, !tbaa !40
  %176 = zext i8 %175 to i32
  %177 = add nsw i32 %174, %176
  %178 = sdiv i32 %177, 3
  %179 = trunc i32 %178 to i8
  %180 = zext i8 %179 to i32
  %181 = shl i32 %180, 0
  %182 = load i8, ptr %16, align 1, !tbaa !40
  %183 = zext i8 %182 to i32
  %184 = mul nsw i32 2, %183
  %185 = load i8, ptr %13, align 1, !tbaa !40
  %186 = zext i8 %185 to i32
  %187 = add nsw i32 %184, %186
  %188 = sdiv i32 %187, 3
  %189 = trunc i32 %188 to i8
  %190 = zext i8 %189 to i32
  %191 = shl i32 %190, 8
  %192 = or i32 %181, %191
  %193 = load i8, ptr %17, align 1, !tbaa !40
  %194 = zext i8 %193 to i32
  %195 = mul nsw i32 2, %194
  %196 = load i8, ptr %14, align 1, !tbaa !40
  %197 = zext i8 %196 to i32
  %198 = add nsw i32 %195, %197
  %199 = sdiv i32 %198, 3
  %200 = trunc i32 %199 to i8
  %201 = zext i8 %200 to i32
  %202 = shl i32 %201, 16
  %203 = or i32 %192, %202
  %204 = load i8, ptr %18, align 1, !tbaa !40
  %205 = zext i8 %204 to i32
  %206 = shl i32 %205, 24
  %207 = or i32 %203, %206
  %208 = load ptr, ptr %6, align 8, !tbaa !79
  %209 = getelementptr inbounds i32, ptr %208, i64 3
  store i32 %207, ptr %209, align 4, !tbaa !29
  br label %287

210:                                              ; preds = %93
  %211 = load i8, ptr %12, align 1, !tbaa !40
  %212 = zext i8 %211 to i32
  %213 = shl i32 %212, 0
  %214 = load i8, ptr %13, align 1, !tbaa !40
  %215 = zext i8 %214 to i32
  %216 = shl i32 %215, 8
  %217 = or i32 %213, %216
  %218 = load i8, ptr %14, align 1, !tbaa !40
  %219 = zext i8 %218 to i32
  %220 = shl i32 %219, 16
  %221 = or i32 %217, %220
  %222 = load i8, ptr %18, align 1, !tbaa !40
  %223 = zext i8 %222 to i32
  %224 = shl i32 %223, 24
  %225 = or i32 %221, %224
  %226 = load ptr, ptr %6, align 8, !tbaa !79
  %227 = getelementptr inbounds i32, ptr %226, i64 0
  store i32 %225, ptr %227, align 4, !tbaa !29
  %228 = load i8, ptr %15, align 1, !tbaa !40
  %229 = zext i8 %228 to i32
  %230 = shl i32 %229, 0
  %231 = load i8, ptr %16, align 1, !tbaa !40
  %232 = zext i8 %231 to i32
  %233 = shl i32 %232, 8
  %234 = or i32 %230, %233
  %235 = load i8, ptr %17, align 1, !tbaa !40
  %236 = zext i8 %235 to i32
  %237 = shl i32 %236, 16
  %238 = or i32 %234, %237
  %239 = load i8, ptr %18, align 1, !tbaa !40
  %240 = zext i8 %239 to i32
  %241 = shl i32 %240, 24
  %242 = or i32 %238, %241
  %243 = load ptr, ptr %6, align 8, !tbaa !79
  %244 = getelementptr inbounds i32, ptr %243, i64 1
  store i32 %242, ptr %244, align 4, !tbaa !29
  %245 = load i8, ptr %12, align 1, !tbaa !40
  %246 = zext i8 %245 to i32
  %247 = load i8, ptr %15, align 1, !tbaa !40
  %248 = zext i8 %247 to i32
  %249 = add nsw i32 %246, %248
  %250 = sdiv i32 %249, 2
  %251 = trunc i32 %250 to i8
  %252 = zext i8 %251 to i32
  %253 = shl i32 %252, 0
  %254 = load i8, ptr %13, align 1, !tbaa !40
  %255 = zext i8 %254 to i32
  %256 = load i8, ptr %16, align 1, !tbaa !40
  %257 = zext i8 %256 to i32
  %258 = add nsw i32 %255, %257
  %259 = sdiv i32 %258, 2
  %260 = trunc i32 %259 to i8
  %261 = zext i8 %260 to i32
  %262 = shl i32 %261, 8
  %263 = or i32 %253, %262
  %264 = load i8, ptr %14, align 1, !tbaa !40
  %265 = zext i8 %264 to i32
  %266 = load i8, ptr %17, align 1, !tbaa !40
  %267 = zext i8 %266 to i32
  %268 = add nsw i32 %265, %267
  %269 = sdiv i32 %268, 2
  %270 = trunc i32 %269 to i8
  %271 = zext i8 %270 to i32
  %272 = shl i32 %271, 16
  %273 = or i32 %263, %272
  %274 = load i8, ptr %18, align 1, !tbaa !40
  %275 = zext i8 %274 to i32
  %276 = shl i32 %275, 24
  %277 = or i32 %273, %276
  %278 = load ptr, ptr %6, align 8, !tbaa !79
  %279 = getelementptr inbounds i32, ptr %278, i64 2
  store i32 %277, ptr %279, align 4, !tbaa !29
  %280 = load i32, ptr %10, align 4, !tbaa !29
  %281 = trunc i32 %280 to i8
  %282 = zext i8 %281 to i32
  %283 = shl i32 %282, 24
  %284 = or i32 0, %283
  %285 = load ptr, ptr %6, align 8, !tbaa !79
  %286 = getelementptr inbounds i32, ptr %285, i64 3
  store i32 %284, ptr %286, align 4, !tbaa !29
  br label %287

287:                                              ; preds = %210, %99
  call void @llvm.lifetime.end.p0(i64 1, ptr %18) #7
  call void @llvm.lifetime.end.p0(i64 1, ptr %17) #7
  call void @llvm.lifetime.end.p0(i64 1, ptr %16) #7
  call void @llvm.lifetime.end.p0(i64 1, ptr %15) #7
  call void @llvm.lifetime.end.p0(i64 1, ptr %14) #7
  call void @llvm.lifetime.end.p0(i64 1, ptr %13) #7
  call void @llvm.lifetime.end.p0(i64 1, ptr %12) #7
  call void @llvm.lifetime.end.p0(i64 4, ptr %11) #7
  ret void
}

; Function Attrs: inlinehint nounwind uwtable
define internal void @dxt1_block_internal(ptr noundef %0, i64 noundef %1, ptr noundef %2, i8 noundef zeroext %3) #2 {
  %5 = alloca ptr, align 8
  %6 = alloca i64, align 8
  %7 = alloca ptr, align 8
  %8 = alloca i8, align 1
  %9 = alloca i32, align 4
  %10 = alloca i32, align 4
  %11 = alloca [4 x i32], align 16
  %12 = alloca i16, align 2
  %13 = alloca i16, align 2
  %14 = alloca i32, align 4
  %15 = alloca i32, align 4
  store ptr %0, ptr %5, align 8, !tbaa !25
  store i64 %1, ptr %6, align 8, !tbaa !27
  store ptr %2, ptr %7, align 8, !tbaa !25
  store i8 %3, ptr %8, align 1, !tbaa !40
  call void @llvm.lifetime.start.p0(i64 4, ptr %9) #7
  call void @llvm.lifetime.start.p0(i64 4, ptr %10) #7
  call void @llvm.lifetime.start.p0(i64 16, ptr %11) #7
  call void @llvm.lifetime.start.p0(i64 2, ptr %12) #7
  %16 = load ptr, ptr %7, align 8, !tbaa !25
  %17 = getelementptr inbounds i8, ptr %16, i64 0
  %18 = load i16, ptr %17, align 1, !tbaa !40
  store i16 %18, ptr %12, align 2, !tbaa !75
  call void @llvm.lifetime.start.p0(i64 2, ptr %13) #7
  %19 = load ptr, ptr %7, align 8, !tbaa !25
  %20 = getelementptr inbounds i8, ptr %19, i64 2
  %21 = load i16, ptr %20, align 1, !tbaa !40
  store i16 %21, ptr %13, align 2, !tbaa !75
  call void @llvm.lifetime.start.p0(i64 4, ptr %14) #7
  %22 = load ptr, ptr %7, align 8, !tbaa !25
  %23 = getelementptr inbounds i8, ptr %22, i64 4
  %24 = load i32, ptr %23, align 1, !tbaa !40
  store i32 %24, ptr %14, align 4, !tbaa !29
  %25 = getelementptr inbounds [4 x i32], ptr %11, i64 0, i64 0
  %26 = load i16, ptr %12, align 2, !tbaa !75
  %27 = load i16, ptr %13, align 2, !tbaa !75
  %28 = load i8, ptr %8, align 1, !tbaa !40
  %29 = zext i8 %28 to i32
  call void @extract_color(ptr noundef %25, i16 noundef zeroext %26, i16 noundef zeroext %27, i32 noundef 0, i32 noundef %29)
  store i32 0, ptr %10, align 4, !tbaa !29
  br label %30

30:                                               ; preds = %58, %4
  %31 = load i32, ptr %10, align 4, !tbaa !29
  %32 = icmp slt i32 %31, 4
  br i1 %32, label %33, label %61

33:                                               ; preds = %30
  store i32 0, ptr %9, align 4, !tbaa !29
  br label %34

34:                                               ; preds = %51, %33
  %35 = load i32, ptr %9, align 4, !tbaa !29
  %36 = icmp slt i32 %35, 4
  br i1 %36, label %37, label %54

37:                                               ; preds = %34
  call void @llvm.lifetime.start.p0(i64 4, ptr %15) #7
  %38 = load i32, ptr %14, align 4, !tbaa !29
  %39 = and i32 %38, 3
  %40 = zext i32 %39 to i64
  %41 = getelementptr inbounds nuw [4 x i32], ptr %11, i64 0, i64 %40
  %42 = load i32, ptr %41, align 4, !tbaa !29
  store i32 %42, ptr %15, align 4, !tbaa !29
  %43 = load i32, ptr %14, align 4, !tbaa !29
  %44 = lshr i32 %43, 2
  store i32 %44, ptr %14, align 4, !tbaa !29
  %45 = load i32, ptr %15, align 4, !tbaa !29
  %46 = load ptr, ptr %5, align 8, !tbaa !25
  %47 = load i32, ptr %9, align 4, !tbaa !29
  %48 = mul nsw i32 %47, 4
  %49 = sext i32 %48 to i64
  %50 = getelementptr inbounds i8, ptr %46, i64 %49
  store i32 %45, ptr %50, align 1, !tbaa !40
  call void @llvm.lifetime.end.p0(i64 4, ptr %15) #7
  br label %51

51:                                               ; preds = %37
  %52 = load i32, ptr %9, align 4, !tbaa !29
  %53 = add nsw i32 %52, 1
  store i32 %53, ptr %9, align 4, !tbaa !29
  br label %34, !llvm.loop !77

54:                                               ; preds = %34
  %55 = load i64, ptr %6, align 8, !tbaa !27
  %56 = load ptr, ptr %5, align 8, !tbaa !25
  %57 = getelementptr inbounds i8, ptr %56, i64 %55
  store ptr %57, ptr %5, align 8, !tbaa !25
  br label %58

58:                                               ; preds = %54
  %59 = load i32, ptr %10, align 4, !tbaa !29
  %60 = add nsw i32 %59, 1
  store i32 %60, ptr %10, align 4, !tbaa !29
  br label %30, !llvm.loop !78

61:                                               ; preds = %30
  call void @llvm.lifetime.end.p0(i64 4, ptr %14) #7
  call void @llvm.lifetime.end.p0(i64 2, ptr %13) #7
  call void @llvm.lifetime.end.p0(i64 2, ptr %12) #7
  call void @llvm.lifetime.end.p0(i64 16, ptr %11) #7
  call void @llvm.lifetime.end.p0(i64 4, ptr %10) #7
  call void @llvm.lifetime.end.p0(i64 4, ptr %9) #7
  ret void
}