; Function Attrs: inlinehint nofree norecurse nosync nounwind memory(argmem: readwrite) uwtable
define internal fastcc void @dxt1_block_internal(ptr noundef writeonly captures(none) %0, i64 noundef %1, ptr noundef readonly captures(none) %2, i8 noundef zeroext range(i8 -1, 1) %3) unnamed_addr #3 {
  %5 = alloca [4 x i32], align 16
  call void @llvm.lifetime.start.p0(i64 16, ptr nonnull %5) #7
  %6 = load i16, ptr %2, align 1, !tbaa !23
  %7 = getelementptr inbounds nuw i8, ptr %2, i64 2
  %8 = load i16, ptr %7, align 1, !tbaa !23
  %9 = getelementptr inbounds nuw i8, ptr %2, i64 4
  %10 = load i32, ptr %9, align 1, !tbaa !23
  %11 = zext i16 %6 to i32
  %12 = lshr i32 %11, 11
  %13 = mul nuw nsw i32 %12, 255
  %14 = add nuw nsw i32 %13, 16
  %15 = lshr i32 %14, 5
  %16 = add nuw nsw i32 %15, %14
  %17 = lshr i32 %16, 5
  %18 = lshr i32 %11, 5
  %19 = and i32 %18, 63
  %20 = mul nuw nsw i32 %19, 255
  %21 = add nuw nsw i32 %20, 32
  %22 = lshr i32 %21, 6
  %23 = add nuw nsw i32 %22, %21
  %24 = lshr i32 %23, 6
  %25 = and i32 %11, 31
  %26 = mul nuw nsw i32 %25, 255
  %27 = add nuw nsw i32 %26, 16
  %28 = lshr i32 %27, 5
  %29 = add nuw nsw i32 %28, %27
  %30 = lshr i32 %29, 5
  %31 = zext i16 %8 to i32
  %32 = lshr i32 %31, 11
  %33 = mul nuw nsw i32 %32, 255
  %34 = add nuw nsw i32 %33, 16
  %35 = lshr i32 %34, 5
  %36 = add nuw nsw i32 %35, %34
  %37 = lshr i32 %36, 5
  %38 = lshr i32 %31, 5
  %39 = and i32 %38, 63
  %40 = mul nuw nsw i32 %39, 255
  %41 = add nuw nsw i32 %40, 32
  %42 = lshr i32 %41, 6
  %43 = add nuw nsw i32 %42, %41
  %44 = lshr i32 %43, 6
  %45 = and i32 %31, 31
  %46 = mul nuw nsw i32 %45, 255
  %47 = add nuw nsw i32 %46, 16
  %48 = lshr i32 %47, 5
  %49 = add nuw nsw i32 %48, %47
  %50 = lshr i32 %49, 5
  %51 = icmp ugt i16 %6, %8
  br i1 %51, label %52, label %88

52:                                               ; preds = %4
  %53 = shl nuw nsw i32 %24, 8
  %54 = shl nuw nsw i32 %30, 16
  %55 = add nuw nsw i32 %53, %54
  %56 = shl nuw nsw i32 %44, 8
  %57 = shl nuw nsw i32 %50, 16
  %58 = add nuw nsw i32 %56, %57
  %59 = shl nuw nsw i32 %17, 1
  %60 = add nuw nsw i32 %59, %37
  %.lhs.trunc = trunc nuw nsw i32 %60 to i16
  %61 = udiv i16 %.lhs.trunc, 3
  %.zext = zext nneg i16 %61 to i32
  %62 = shl nuw nsw i32 %24, 1
  %63 = add nuw nsw i32 %62, %44
  %.lhs.trunc19 = trunc nuw nsw i32 %63 to i16
  %64 = udiv i16 %.lhs.trunc19, 3
  %.zext20 = zext nneg i16 %64 to i32
  %65 = shl nuw nsw i32 %.zext20, 8
  %66 = and i32 %65, 65280
  %67 = or disjoint i32 %66, %.zext
  %68 = shl nuw nsw i32 %30, 1
  %69 = add nuw nsw i32 %68, %50
  %.lhs.trunc21 = trunc nuw nsw i32 %69 to i16
  %70 = udiv i16 %.lhs.trunc21, 3
  %.zext22 = zext nneg i16 %70 to i32
  %71 = shl nuw nsw i32 %.zext22, 16
  %72 = or disjoint i32 %67, %71
  %73 = shl nuw nsw i32 %37, 1
  %74 = add nuw nsw i32 %73, %17
  %.lhs.trunc23 = trunc nuw nsw i32 %74 to i16
  %75 = udiv i16 %.lhs.trunc23, 3
  %.zext24 = zext nneg i16 %75 to i32
  %76 = shl nuw nsw i32 %44, 1
  %77 = add nuw nsw i32 %76, %24
  %.lhs.trunc25 = trunc nuw nsw i32 %77 to i16
  %78 = udiv i16 %.lhs.trunc25, 3
  %.zext26 = zext nneg i16 %78 to i32
  %79 = shl nuw nsw i32 %.zext26, 8
  %80 = and i32 %79, 65280
  %81 = or disjoint i32 %80, %.zext24
  %82 = shl nuw nsw i32 %50, 1
  %83 = add nuw nsw i32 %82, %30
  %.lhs.trunc27 = trunc nuw nsw i32 %83 to i16
  %84 = udiv i16 %.lhs.trunc27, 3
  %.zext28 = zext nneg i16 %84 to i32
  %85 = shl nuw nsw i32 %.zext28, 16
  %86 = or disjoint i32 %81, %85
  %87 = or i32 %86, -16777216
  br label %extract_color.exit

88:                                               ; preds = %4
  %89 = zext i8 %3 to i32
  %90 = shl nuw nsw i32 %24, 8
  %91 = shl nuw nsw i32 %30, 16
  %92 = add nuw nsw i32 %90, %91
  %93 = shl nuw nsw i32 %44, 8
  %94 = shl nuw nsw i32 %50, 16
  %95 = add nuw nsw i32 %93, %94
  %96 = add nuw nsw i32 %37, %17
  %97 = lshr i32 %96, 1
  %98 = add nuw nsw i32 %44, %24
  %99 = shl nuw nsw i32 %98, 7
  %100 = and i32 %99, 65280
  %101 = add nuw nsw i32 %50, %30
  %102 = shl nuw nsw i32 %101, 15
  %103 = and i32 %102, 16711680
  %104 = or i32 %97, %103
  %105 = or i32 %104, %100
  %106 = shl nuw i32 %89, 24
  br label %extract_color.exit

extract_color.exit:                               ; preds = %52, %88
  %.pn = phi i32 [ %55, %52 ], [ %92, %88 ]
  %.pn39 = phi i32 [ %58, %52 ], [ %95, %88 ]
  %.sink36.in = phi i32 [ %72, %52 ], [ %105, %88 ]
  %.sink = phi i32 [ %87, %52 ], [ %106, %88 ]
  %.sink36 = or i32 %.sink36.in, -16777216
  %.sink37.in = add nuw nsw i32 %.pn39, %37
  %.sink37 = add nuw nsw i32 %.sink37.in, -16777216
  %.sink38.in = add nuw nsw i32 %.pn, %17
  %.sink38 = add nuw nsw i32 %.sink38.in, -16777216
  store i32 %.sink38, ptr %5, align 16, !tbaa !67
  %107 = getelementptr inbounds nuw i8, ptr %5, i64 4
  store i32 %.sink37, ptr %107, align 4, !tbaa !67
  %108 = getelementptr inbounds nuw i8, ptr %5, i64 8
  store i32 %.sink36, ptr %108, align 8, !tbaa !67
  %109 = getelementptr inbounds nuw i8, ptr %5, i64 12
  store i32 %.sink, ptr %109, align 4, !tbaa !67
  br label %.preheader

.preheader:                                       ; preds = %extract_color.exit, %118
  %.033 = phi ptr [ %0, %extract_color.exit ], [ %119, %118 ]
  %.01632 = phi i32 [ %10, %extract_color.exit ], [ %115, %118 ]
  %.01831 = phi i32 [ 0, %extract_color.exit ], [ %120, %118 ]
  br label %110

110:                                              ; preds = %.preheader, %110
  %indvars.iv = phi i64 [ 0, %.preheader ], [ %indvars.iv.next, %110 ]
  %.130 = phi i32 [ %.01632, %.preheader ], [ %115, %110 ]
  %111 = and i32 %.130, 3
  %112 = zext nneg i32 %111 to i64
  %113 = getelementptr inbounds nuw [4 x i32], ptr %5, i64 0, i64 %112
  %114 = load i32, ptr %113, align 4, !tbaa !67
  %115 = lshr i32 %.130, 2
  %116 = shl nuw nsw i64 %indvars.iv, 2
  %117 = getelementptr inbounds nuw i8, ptr %.033, i64 %116
  store i32 %114, ptr %117, align 1, !tbaa !23
  %indvars.iv.next = add nuw nsw i64 %indvars.iv, 1
  %exitcond.not = icmp eq i64 %indvars.iv.next, 4
  br i1 %exitcond.not, label %118, label %110, !llvm.loop !68

118:                                              ; preds = %110
  %119 = getelementptr inbounds i8, ptr %.033, i64 %1
  %120 = add nuw nsw i32 %.01831, 1
  %exitcond35.not = icmp eq i32 %120, 4
  br i1 %exitcond35.not, label %121, label %.preheader, !llvm.loop !69

121:                                              ; preds = %118
  call void @llvm.lifetime.end.p0(i64 16, ptr nonnull %5) #7
  ret void
}